target datalayout = "e-m:e-p270:32:32-p271:32:32-p272:64:64-i64:64-i128:128-f80:128-n8:16:32:64-S128"
target triple = "x86_64-pc-linux-gnu"

%struct.stbir__contributors = type { i32, i32 }
%struct.__loadu_ps = type { <4 x float> }
%struct.__storeu_ps = type { <4 x float> }
%struct.__mm_load_ss_struct = type { float }

; Function Attrs: alwaysinline nounwind uwtable
define internal void @_mm_storeu_ps(ptr noundef %0, <4 x float> noundef %1) #13 {
  %3 = alloca ptr, align 8
  %4 = alloca <4 x float>, align 16
  store ptr %0, ptr %3, align 8
  store <4 x float> %1, ptr %4, align 16
  %5 = load <4 x float>, ptr %4, align 16
  %6 = load ptr, ptr %3, align 8
  %7 = getelementptr inbounds nuw %struct.__storeu_ps, ptr %6, i32 0, i32 0
  store <4 x float> %5, ptr %7, align 1
  ret void
}

; Function Attrs: alwaysinline nounwind uwtable
define internal <4 x float> @_mm_load_ss(ptr noundef %0) #13 {
  %2 = alloca ptr, align 8
  %3 = alloca float, align 4
  %4 = alloca <4 x float>, align 16
  store ptr %0, ptr %2, align 8
  call void @llvm.lifetime.start.p0(i64 4, ptr %3) #19
  %5 = load ptr, ptr %2, align 8
  %6 = getelementptr inbounds nuw %struct.__mm_load_ss_struct, ptr %5, i32 0, i32 0
  %7 = load float, ptr %6, align 1
  store float %7, ptr %3, align 4
  %8 = load float, ptr %3, align 4
  %9 = insertelement <4 x float> poison, float %8, i32 0
  %10 = insertelement <4 x float> %9, float 0.000000e+00, i32 1
  %11 = insertelement <4 x float> %10, float 0.000000e+00, i32 2
  %12 = insertelement <4 x float> %11, float 0.000000e+00, i32 3
  store <4 x float> %12, ptr %4, align 16
  %13 = load <4 x float>, ptr %4, align 16
  call void @llvm.lifetime.end.p0(i64 4, ptr %3) #19
  ret <4 x float> %13
}

; Function Attrs: alwaysinline nounwind uwtable
define internal <4 x float> @_mm_add_ps(<4 x float> noundef %0, <4 x float> noundef %1) #13 {
  %3 = alloca <4 x float>, align 16
  %4 = alloca <4 x float>, align 16
  store <4 x float> %0, ptr %3, align 16
  store <4 x float> %1, ptr %4, align 16
  %5 = load <4 x float>, ptr %3, align 16
  %6 = load <4 x float>, ptr %4, align 16
  %7 = fadd <4 x float> %5, %6
  ret <4 x float> %7
}

; Function Attrs: alwaysinline nounwind uwtable
define internal <4 x float> @_mm_mul_ps(<4 x float> noundef %0, <4 x float> noundef %1) #13 {
  %3 = alloca <4 x float>, align 16
  %4 = alloca <4 x float>, align 16
  store <4 x float> %0, ptr %3, align 16
  store <4 x float> %1, ptr %4, align 16
  %5 = load <4 x float>, ptr %3, align 16
  %6 = load <4 x float>, ptr %4, align 16
  %7 = fmul <4 x float> %5, %6
  ret <4 x float> %7
}

; Function Attrs: alwaysinline nounwind uwtable
define internal <4 x float> @_mm_castsi128_ps(<2 x i64> noundef %0) #13 {
  %2 = alloca <2 x i64>, align 16
  store <2 x i64> %0, ptr %2, align 16
  %3 = load <2 x i64>, ptr %2, align 16
  %4 = bitcast <2 x i64> %3 to <4 x float>
  ret <4 x float> %4
}

; Function Attrs: alwaysinline nounwind uwtable
define internal <2 x i64> @_mm_castps_si128(<4 x float> noundef %0) #13 {
  %2 = alloca <4 x float>, align 16
  store <4 x float> %0, ptr %2, align 16
  %3 = load <4 x float>, ptr %2, align 16
  %4 = bitcast <4 x float> %3 to <2 x i64>
  ret <2 x i64> %4
}

; Function Attrs: alwaysinline nounwind uwtable
define internal <4 x float> @_mm_loadu_ps(ptr noundef %0) #13 {
  %2 = alloca ptr, align 8
  store ptr %0, ptr %2, align 8
  %3 = load ptr, ptr %2, align 8
  %4 = getelementptr inbounds nuw %struct.__loadu_ps, ptr %3, i32 0, i32 0
  %5 = load <4 x float>, ptr %4, align 1
  ret <4 x float> %5
}

; Function Attrs: nounwind uwtable
define internal void @stbir__horizontal_gather_7_channels_with_9_coeffs(ptr noundef %0, i32 noundef %1, ptr noundef %2, ptr noundef %3, ptr noundef %4, i32 noundef %5) #12 {
  %7 = alloca ptr, align 8
  %8 = alloca i32, align 4
  %9 = alloca ptr, align 8
  %10 = alloca ptr, align 8
  %11 = alloca ptr, align 8
  %12 = alloca i32, align 4
  %13 = alloca ptr, align 8
  %14 = alloca ptr, align 8
  %15 = alloca ptr, align 8
  %16 = alloca ptr, align 8
  %17 = alloca <4 x float>, align 16
  %18 = alloca <4 x float>, align 16
  %19 = alloca <4 x float>, align 16
  %20 = alloca <4 x float>, align 16
  %21 = alloca <4 x float>, align 16
  %22 = alloca <4 x float>, align 16
  store ptr %0, ptr %7, align 8
  store i32 %1, ptr %8, align 4
  store ptr %2, ptr %9, align 8
  store ptr %3, ptr %10, align 8
  store ptr %4, ptr %11, align 8
  store i32 %5, ptr %12, align 4
  call void @llvm.lifetime.start.p0(i64 8, ptr %13) #19
  %23 = load ptr, ptr %7, align 8
  %24 = load i32, ptr %8, align 4
  %25 = mul i32 %24, 7
  %26 = zext i32 %25 to i64
  %27 = getelementptr inbounds nuw float, ptr %23, i64 %26
  store ptr %27, ptr %13, align 8
  call void @llvm.lifetime.start.p0(i64 8, ptr %14) #19
  %28 = load ptr, ptr %7, align 8
  store ptr %28, ptr %14, align 8
  br label %29

29:                                               ; preds = %247, %6
  call void @llvm.lifetime.start.p0(i64 8, ptr %15) #19
  %30 = load ptr, ptr %9, align 8
  %31 = load ptr, ptr %10, align 8
  %32 = getelementptr inbounds nuw %struct.stbir__contributors, ptr %31, i32 0, i32 0
  %33 = load i32, ptr %32, align 4
  %34 = mul nsw i32 %33, 7
  %35 = sext i32 %34 to i64
  %36 = getelementptr inbounds float, ptr %30, i64 %35
  store ptr %36, ptr %15, align 8
  call void @llvm.lifetime.start.p0(i64 8, ptr %16) #19
  %37 = load ptr, ptr %11, align 8
  store ptr %37, ptr %16, align 8
  call void @llvm.lifetime.start.p0(i64 16, ptr %17) #19
  call void @llvm.lifetime.start.p0(i64 16, ptr %18) #19
  call void @llvm.lifetime.start.p0(i64 16, ptr %19) #19
  call void @llvm.lifetime.start.p0(i64 16, ptr %20) #19
  call void @llvm.lifetime.start.p0(i64 16, ptr %21) #19
  call void @llvm.lifetime.start.p0(i64 16, ptr %22) #19
  %38 = load ptr, ptr %15, align 8
  call void asm sideeffect "", "r,~{dirflag},~{fpsr},~{flags}"(ptr %38) #19, !srcloc !650
  %39 = load ptr, ptr %16, align 8
  %40 = call <4 x float> @_mm_loadu_ps(ptr noundef %39)
  store <4 x float> %40, ptr %22, align 16
  %41 = load <4 x float>, ptr %22, align 16
  %42 = call <2 x i64> @_mm_castps_si128(<4 x float> noundef %41)
  %43 = bitcast <2 x i64> %42 to <4 x i32>
  %44 = shufflevector <4 x i32> %43, <4 x i32> poison, <4 x i32> zeroinitializer
  %45 = bitcast <4 x i32> %44 to <2 x i64>
  %46 = call <4 x float> @_mm_castsi128_ps(<2 x i64> noundef %45)
  store <4 x float> %46, ptr %21, align 16
  %47 = load <4 x float>, ptr %21, align 16
  %48 = load ptr, ptr %15, align 8
  %49 = call <4 x float> @_mm_loadu_ps(ptr noundef %48)
  %50 = call <4 x float> @_mm_mul_ps(<4 x float> noundef %47, <4 x float> noundef %49)
  store <4 x float> %50, ptr %17, align 16
  %51 = load <4 x float>, ptr %21, align 16
  %52 = load ptr, ptr %15, align 8
  %53 = getelementptr inbounds float, ptr %52, i64 3
  %54 = call <4 x float> @_mm_loadu_ps(ptr noundef %53)
  %55 = call <4 x float> @_mm_mul_ps(<4 x float> noundef %51, <4 x float> noundef %54)
  store <4 x float> %55, ptr %18, align 16
  %56 = load <4 x float>, ptr %22, align 16
  %57 = call <2 x i64> @_mm_castps_si128(<4 x float> noundef %56)
  %58 = bitcast <2 x i64> %57 to <4 x i32>
  %59 = shufflevector <4 x i32> %58, <4 x i32> poison, <4 x i32> <i32 1, i32 1, i32 1, i32 1>
  %60 = bitcast <4 x i32> %59 to <2 x i64>
  %61 = call <4 x float> @_mm_castsi128_ps(<2 x i64> noundef %60)
  store <4 x float> %61, ptr %21, align 16
  %62 = load <4 x float>, ptr %21, align 16
  %63 = load ptr, ptr %15, align 8
  %64 = getelementptr inbounds float, ptr %63, i64 7
  %65 = call <4 x float> @_mm_loadu_ps(ptr noundef %64)
  %66 = call <4 x float> @_mm_mul_ps(<4 x float> noundef %62, <4 x float> noundef %65)
  store <4 x float> %66, ptr %19, align 16
  %67 = load <4 x float>, ptr %21, align 16
  %68 = load ptr, ptr %15, align 8
  %69 = getelementptr inbounds float, ptr %68, i64 10
  %70 = call <4 x float> @_mm_loadu_ps(ptr noundef %69)
  %71 = call <4 x float> @_mm_mul_ps(<4 x float> noundef %67, <4 x float> noundef %70)
  store <4 x float> %71, ptr %20, align 16
  %72 = load <4 x float>, ptr %22, align 16
  %73 = call <2 x i64> @_mm_castps_si128(<4 x float> noundef %72)
  %74 = bitcast <2 x i64> %73 to <4 x i32>
  %75 = shufflevector <4 x i32> %74, <4 x i32> poison, <4 x i32> <i32 2, i32 2, i32 2, i32 2>
  %76 = bitcast <4 x i32> %75 to <2 x i64>
  %77 = call <4 x float> @_mm_castsi128_ps(<2 x i64> noundef %76)
  store <4 x float> %77, ptr %21, align 16
  %78 = load <4 x float>, ptr %17, align 16
  %79 = load <4 x float>, ptr %21, align 16
  %80 = load ptr, ptr %15, align 8
  %81 = getelementptr inbounds float, ptr %80, i64 14
  %82 = call <4 x float> @_mm_loadu_ps(ptr noundef %81)
  %83 = call <4 x float> @_mm_mul_ps(<4 x float> noundef %79, <4 x float> noundef %82)
  %84 = call <4 x float> @_mm_add_ps(<4 x float> noundef %78, <4 x float> noundef %83)
  store <4 x float> %84, ptr %17, align 16
  %85 = load <4 x float>, ptr %18, align 16
  %86 = load <4 x float>, ptr %21, align 16
  %87 = load ptr, ptr %15, align 8
  %88 = getelementptr inbounds float, ptr %87, i64 17
  %89 = call <4 x float> @_mm_loadu_ps(ptr noundef %88)
  %90 = call <4 x float> @_mm_mul_ps(<4 x float> noundef %86, <4 x float> noundef %89)
  %91 = call <4 x float> @_mm_add_ps(<4 x float> noundef %85, <4 x float> noundef %90)
  store <4 x float> %91, ptr %18, align 16
  %92 = load <4 x float>, ptr %22, align 16
  %93 = call <2 x i64> @_mm_castps_si128(<4 x float> noundef %92)
  %94 = bitcast <2 x i64> %93 to <4 x i32>
  %95 = shufflevector <4 x i32> %94, <4 x i32> poison, <4 x i32> <i32 3, i32 3, i32 3, i32 3>
  %96 = bitcast <4 x i32> %95 to <2 x i64>
  %97 = call <4 x float> @_mm_castsi128_ps(<2 x i64> noundef %96)
  store <4 x float> %97, ptr %21, align 16
  %98 = load <4 x float>, ptr %19, align 16
  %99 = load <4 x float>, ptr %21, align 16
  %100 = load ptr, ptr %15, align 8
  %101 = getelementptr inbounds float, ptr %100, i64 21
  %102 = call <4 x float> @_mm_loadu_ps(ptr noundef %101)
  %103 = call <4 x float> @_mm_mul_ps(<4 x float> noundef %99, <4 x float> noundef %102)
  %104 = call <4 x float> @_mm_add_ps(<4 x float> noundef %98, <4 x float> noundef %103)
  store <4 x float> %104, ptr %19, align 16
  %105 = load <4 x float>, ptr %20, align 16
  %106 = load <4 x float>, ptr %21, align 16
  %107 = load ptr, ptr %15, align 8
  %108 = getelementptr inbounds float, ptr %107, i64 24
  %109 = call <4 x float> @_mm_loadu_ps(ptr noundef %108)
  %110 = call <4 x float> @_mm_mul_ps(<4 x float> noundef %106, <4 x float> noundef %109)
  %111 = call <4 x float> @_mm_add_ps(<4 x float> noundef %105, <4 x float> noundef %110)
  store <4 x float> %111, ptr %20, align 16
  %112 = load ptr, ptr %15, align 8
  call void asm sideeffect "", "r,~{dirflag},~{fpsr},~{flags}"(ptr %112) #19, !srcloc !651
  %113 = load ptr, ptr %16, align 8
  %114 = getelementptr inbounds float, ptr %113, i64 4
  %115 = call <4 x float> @_mm_loadu_ps(ptr noundef %114)
  store <4 x float> %115, ptr %22, align 16
  %116 = load <4 x float>, ptr %22, align 16
  %117 = call <2 x i64> @_mm_castps_si128(<4 x float> noundef %116)
  %118 = bitcast <2 x i64> %117 to <4 x i32>
  %119 = shufflevector <4 x i32> %118, <4 x i32> poison, <4 x i32> zeroinitializer
  %120 = bitcast <4 x i32> %119 to <2 x i64>
  %121 = call <4 x float> @_mm_castsi128_ps(<2 x i64> noundef %120)
  store <4 x float> %121, ptr %21, align 16
  %122 = load <4 x float>, ptr %17, align 16
  %123 = load <4 x float>, ptr %21, align 16
  %124 = load ptr, ptr %15, align 8
  %125 = getelementptr inbounds float, ptr %124, i64 28
  %126 = call <4 x float> @_mm_loadu_ps(ptr noundef %125)
  %127 = call <4 x float> @_mm_mul_ps(<4 x float> noundef %123, <4 x float> noundef %126)
  %128 = call <4 x float> @_mm_add_ps(<4 x float> noundef %122, <4 x float> noundef %127)
  store <4 x float> %128, ptr %17, align 16
  %129 = load <4 x float>, ptr %18, align 16
  %130 = load <4 x float>, ptr %21, align 16
  %131 = load ptr, ptr %15, align 8
  %132 = getelementptr inbounds float, ptr %131, i64 28
  %133 = getelementptr inbounds float, ptr %132, i64 3
  %134 = call <4 x float> @_mm_loadu_ps(ptr noundef %133)
  %135 = call <4 x float> @_mm_mul_ps(<4 x float> noundef %130, <4 x float> noundef %134)
  %136 = call <4 x float> @_mm_add_ps(<4 x float> noundef %129, <4 x float> noundef %135)
  store <4 x float> %136, ptr %18, align 16
  %137 = load <4 x float>, ptr %22, align 16
  %138 = call <2 x i64> @_mm_castps_si128(<4 x float> noundef %137)
  %139 = bitcast <2 x i64> %138 to <4 x i32>
  %140 = shufflevector <4 x i32> %139, <4 x i32> poison, <4 x i32> <i32 1, i32 1, i32 1, i32 1>
  %141 = bitcast <4 x i32> %140 to <2 x i64>
  %142 = call <4 x float> @_mm_castsi128_ps(<2 x i64> noundef %141)
  store <4 x float> %142, ptr %21, align 16
  %143 = load <4 x float>, ptr %19, align 16
  %144 = load <4 x float>, ptr %21, align 16
  %145 = load ptr, ptr %15, align 8
  %146 = getelementptr inbounds float, ptr %145, i64 28
  %147 = getelementptr inbounds float, ptr %146, i64 7
  %148 = call <4 x float> @_mm_loadu_ps(ptr noundef %147)
  %149 = call <4 x float> @_mm_mul_ps(<4 x float> noundef %144, <4 x float> noundef %148)
  %150 = call <4 x float> @_mm_add_ps(<4 x float> noundef %143, <4 x float> noundef %149)
  store <4 x float> %150, ptr %19, align 16
  %151 = load <4 x float>, ptr %20, align 16
  %152 = load <4 x float>, ptr %21, align 16
  %153 = load ptr, ptr %15, align 8
  %154 = getelementptr inbounds float, ptr %153, i64 28
  %155 = getelementptr inbounds float, ptr %154, i64 10
  %156 = call <4 x float> @_mm_loadu_ps(ptr noundef %155)
  %157 = call <4 x float> @_mm_mul_ps(<4 x float> noundef %152, <4 x float> noundef %156)
  %158 = call <4 x float> @_mm_add_ps(<4 x float> noundef %151, <4 x float> noundef %157)
  store <4 x float> %158, ptr %20, align 16
  %159 = load <4 x float>, ptr %22, align 16
  %160 = call <2 x i64> @_mm_castps_si128(<4 x float> noundef %159)
  %161 = bitcast <2 x i64> %160 to <4 x i32>
  %162 = shufflevector <4 x i32> %161, <4 x i32> poison, <4 x i32> <i32 2, i32 2, i32 2, i32 2>
  %163 = bitcast <4 x i32> %162 to <2 x i64>
  %164 = call <4 x float> @_mm_castsi128_ps(<2 x i64> noundef %163)
  store <4 x float> %164, ptr %21, align 16
  %165 = load <4 x float>, ptr %17, align 16
  %166 = load <4 x float>, ptr %21, align 16
  %167 = load ptr, ptr %15, align 8
  %168 = getelementptr inbounds float, ptr %167, i64 28
  %169 = getelementptr inbounds float, ptr %168, i64 14
  %170 = call <4 x float> @_mm_loadu_ps(ptr noundef %169)
  %171 = call <4 x float> @_mm_mul_ps(<4 x float> noundef %166, <4 x float> noundef %170)
  %172 = call <4 x float> @_mm_add_ps(<4 x float> noundef %165, <4 x float> noundef %171)
  store <4 x float> %172, ptr %17, align 16
  %173 = load <4 x float>, ptr %18, align 16
  %174 = load <4 x float>, ptr %21, align 16
  %175 = load ptr, ptr %15, align 8
  %176 = getelementptr inbounds float, ptr %175, i64 28
  %177 = getelementptr inbounds float, ptr %176, i64 17
  %178 = call <4 x float> @_mm_loadu_ps(ptr noundef %177)
  %179 = call <4 x float> @_mm_mul_ps(<4 x float> noundef %174, <4 x float> noundef %178)
  %180 = call <4 x float> @_mm_add_ps(<4 x float> noundef %173, <4 x float> noundef %179)
  store <4 x float> %180, ptr %18, align 16
  %181 = load <4 x float>, ptr %22, align 16
  %182 = call <2 x i64> @_mm_castps_si128(<4 x float> noundef %181)
  %183 = bitcast <2 x i64> %182 to <4 x i32>
  %184 = shufflevector <4 x i32> %183, <4 x i32> poison, <4 x i32> <i32 3, i32 3, i32 3, i32 3>
  %185 = bitcast <4 x i32> %184 to <2 x i64>
  %186 = call <4 x float> @_mm_castsi128_ps(<2 x i64> noundef %185)
  store <4 x float> %186, ptr %21, align 16
  %187 = load <4 x float>, ptr %19, align 16
  %188 = load <4 x float>, ptr %21, align 16
  %189 = load ptr, ptr %15, align 8
  %190 = getelementptr inbounds float, ptr %189, i64 28
  %191 = getelementptr inbounds float, ptr %190, i64 21
  %192 = call <4 x float> @_mm_loadu_ps(ptr noundef %191)
  %193 = call <4 x float> @_mm_mul_ps(<4 x float> noundef %188, <4 x float> noundef %192)
  %194 = call <4 x float> @_mm_add_ps(<4 x float> noundef %187, <4 x float> noundef %193)
  store <4 x float> %194, ptr %19, align 16
  %195 = load <4 x float>, ptr %20, align 16
  %196 = load <4 x float>, ptr %21, align 16
  %197 = load ptr, ptr %15, align 8
  %198 = getelementptr inbounds float, ptr %197, i64 28
  %199 = getelementptr inbounds float, ptr %198, i64 24
  %200 = call <4 x float> @_mm_loadu_ps(ptr noundef %199)
  %201 = call <4 x float> @_mm_mul_ps(<4 x float> noundef %196, <4 x float> noundef %200)
  %202 = call <4 x float> @_mm_add_ps(<4 x float> noundef %195, <4 x float> noundef %201)
  store <4 x float> %202, ptr %20, align 16
  %203 = load ptr, ptr %15, align 8
  call void asm sideeffect "", "r,~{dirflag},~{fpsr},~{flags}"(ptr %203) #19, !srcloc !652
  %204 = load ptr, ptr %16, align 8
  %205 = getelementptr inbounds float, ptr %204, i64 8
  %206 = call <4 x float> @_mm_load_ss(ptr noundef %205)
  store <4 x float> %206, ptr %21, align 16
  %207 = load <4 x float>, ptr %21, align 16
  %208 = call <2 x i64> @_mm_castps_si128(<4 x float> noundef %207)
  %209 = bitcast <2 x i64> %208 to <4 x i32>
  %210 = shufflevector <4 x i32> %209, <4 x i32> poison, <4 x i32> zeroinitializer
  %211 = bitcast <4 x i32> %210 to <2 x i64>
  %212 = call <4 x float> @_mm_castsi128_ps(<2 x i64> noundef %211)
  store <4 x float> %212, ptr %21, align 16
  %213 = load <4 x float>, ptr %17, align 16
  %214 = load <4 x float>, ptr %21, align 16
  %215 = load ptr, ptr %15, align 8
  %216 = getelementptr inbounds float, ptr %215, i64 56
  %217 = call <4 x float> @_mm_loadu_ps(ptr noundef %216)
  %218 = call <4 x float> @_mm_mul_ps(<4 x float> noundef %214, <4 x float> noundef %217)
  %219 = call <4 x float> @_mm_add_ps(<4 x float> noundef %213, <4 x float> noundef %218)
  store <4 x float> %219, ptr %17, align 16
  %220 = load <4 x float>, ptr %18, align 16
  %221 = load <4 x float>, ptr %21, align 16
  %222 = load ptr, ptr %15, align 8
  %223 = getelementptr inbounds float, ptr %222, i64 56
  %224 = getelementptr inbounds float, ptr %223, i64 3
  %225 = call <4 x float> @_mm_loadu_ps(ptr noundef %224)
  %226 = call <4 x float> @_mm_mul_ps(<4 x float> noundef %221, <4 x float> noundef %225)
  %227 = call <4 x float> @_mm_add_ps(<4 x float> noundef %220, <4 x float> noundef %226)
  store <4 x float> %227, ptr %18, align 16
  %228 = load <4 x float>, ptr %17, align 16
  %229 = load <4 x float>, ptr %19, align 16
  %230 = call <4 x float> @_mm_add_ps(<4 x float> noundef %228, <4 x float> noundef %229)
  store <4 x float> %230, ptr %17, align 16
  %231 = load <4 x float>, ptr %18, align 16
  %232 = load <4 x float>, ptr %20, align 16
  %233 = call <4 x float> @_mm_add_ps(<4 x float> noundef %231, <4 x float> noundef %232)
  store <4 x float> %233, ptr %18, align 16
  %234 = load ptr, ptr %14, align 8
  %235 = getelementptr inbounds float, ptr %234, i64 3
  %236 = load <4 x float>, ptr %18, align 16
  call void @_mm_storeu_ps(ptr noundef %235, <4 x float> noundef %236)
  %237 = load ptr, ptr %14, align 8
  %238 = load <4 x float>, ptr %17, align 16
  call void @_mm_storeu_ps(ptr noundef %237, <4 x float> noundef %238)
  %239 = load i32, ptr %12, align 4
  %240 = load ptr, ptr %11, align 8
  %241 = sext i32 %239 to i64
  %242 = getelementptr inbounds float, ptr %240, i64 %241
  store ptr %242, ptr %11, align 8
  %243 = load ptr, ptr %10, align 8
  %244 = getelementptr inbounds nuw %struct.stbir__contributors, ptr %243, i32 1
  store ptr %244, ptr %10, align 8
  %245 = load ptr, ptr %14, align 8
  %246 = getelementptr inbounds float, ptr %245, i64 7
  store ptr %246, ptr %14, align 8
  call void @llvm.lifetime.end.p0(i64 16, ptr %22) #19
  call void @llvm.lifetime.end.p0(i64 16, ptr %21) #19
  call void @llvm.lifetime.end.p0(i64 16, ptr %20) #19
  call void @llvm.lifetime.end.p0(i64 16, ptr %19) #19
  call void @llvm.lifetime.end.p0(i64 16, ptr %18) #19
  call void @llvm.lifetime.end.p0(i64 16, ptr %17) #19
  call void @llvm.lifetime.end.p0(i64 8, ptr %16) #19
  call void @llvm.lifetime.end.p0(i64 8, ptr %15) #19
  br label %247

247:                                              ; preds = %29
  %248 = load ptr, ptr %14, align 8
  %249 = load ptr, ptr %13, align 8
  %250 = icmp ult ptr %248, %249
  br i1 %250, label %29, label %251, !llvm.loop !653

251:                                              ; preds = %247
  call void @llvm.lifetime.end.p0(i64 8, ptr %14) #19
  call void @llvm.lifetime.end.p0(i64 8, ptr %13) #19
  ret void
}